target datalayout = "e-m:e-p270:32:32-p271:32:32-p272:64:64-i64:64-i128:128-f80:128-n8:16:32:64-S128"
target triple = "x86_64-pc-linux-gnu"

%struct._asn1_ctx_t = type { i32, i32, i8, ptr, ptr, ptr, ptr, ptr, %struct.anon, %struct.anon.2, %struct.anon.3, ptr }
%struct.anon = type { i32, i8, i8, i8, ptr, ptr, i32, i32, ptr, ptr, ptr, %union.anon }
%union.anon = type { %struct.anon.0 }
%struct.anon.0 = type { ptr }
%struct.anon.2 = type { ptr, ptr, ptr }
%struct.anon.3 = type { i32, i8, ptr, i32, i32, ptr, ptr, ptr, %union.anon.4 }
%union.anon.4 = type { %struct.anon.5 }
%struct.anon.5 = type { ptr }
%struct._packet_info = type { ptr, ptr, i32, i32, %struct.nstime_t, %struct.nstime_t, %struct.nstime_t, i8, ptr, ptr, ptr, ptr, %struct._address, %struct._address, %struct._address, %struct._address, %struct._address, %struct._address, i32, ptr, i8, [3 x i8], %struct.anon.7, i32, i32, i32, i32, ptr, i8, ptr, ptr, i16, i16, i32, i32, i16, i32, i32, ptr, ptr, ptr, i8, i8, i16, i16, i16, i32, i16, i16, ptr, ptr, ptr, ptr, ptr, i32, i32 }
%struct.nstime_t = type { i64, i32 }
%struct._address = type { i32, i32, ptr, ptr }
%struct.anon.7 = type { i8, [3 x i8] }
%struct._h225_packet_info = type { i32, i32, i32, i32, i32, %struct._e_guid_t, i8, i8, %struct.nstime_t, i8, i8, i8, i32, i16, [129 x i8], i8, [50 x i8] }
%struct._e_guid_t = type { i32, i16, i16, [8 x i8] }

@proto_h225 = internal global i32 0, align 4
@ett_h225_UnregRejectReason = internal global i32 0, align 4

; Function Attrs: null_pointer_is_valid sspstrong uwtable
define internal i32 @dissect_h225_UnregRejectReason(ptr noundef %0, i32 noundef %1, ptr noundef %2, ptr noundef %3, i32 noundef %4) #0 {
  %6 = alloca ptr, align 8
  %7 = alloca i32, align 4
  %8 = alloca ptr, align 8
  %9 = alloca ptr, align 8
  %10 = alloca i32, align 4
  %11 = alloca i32, align 4
  %12 = alloca ptr, align 8
  store ptr %0, ptr %6, align 8
  store i32 %1, ptr %7, align 4
  store ptr %2, ptr %8, align 8
  store ptr %3, ptr %9, align 8
  store i32 %4, ptr %10, align 4
  call void @llvm.lifetime.start.p0(i64 4, ptr %11) #11
  call void @llvm.lifetime.start.p0(i64 8, ptr %12) #11
  %13 = load ptr, ptr %8, align 8
  %14 = getelementptr inbounds nuw %struct._asn1_ctx_t, ptr %13, i32 0, i32 3
  %15 = load ptr, ptr %14, align 8
  %16 = getelementptr inbounds nuw %struct._packet_info, ptr %15, i32 0, i32 51
  %17 = load ptr, ptr %16, align 8
  %18 = load ptr, ptr %8, align 8
  %19 = getelementptr inbounds nuw %struct._asn1_ctx_t, ptr %18, i32 0, i32 3
  %20 = load ptr, ptr %19, align 8
  %21 = load i32, ptr @proto_h225, align 4
  %22 = call ptr @p_get_proto_data(ptr noundef %17, ptr noundef %20, i32 noundef %21, i32 noundef 0)
  store ptr %22, ptr %12, align 8
  %23 = load ptr, ptr %6, align 8
  %24 = load i32, ptr %7, align 4
  %25 = load ptr, ptr %8, align 8
  %26 = load ptr, ptr %9, align 8
  %27 = load i32, ptr %10, align 4
  %28 = load i32, ptr @ett_h225_UnregRejectReason, align 4
  %29 = call i32 @dissect_per_choice(ptr noundef %23, i32 noundef %24, ptr noundef %25, ptr noundef %26, i32 noundef %27, i32 noundef %28, ptr noundef @UnregRejectReason_choice, ptr noundef %11)
  store i32 %29, ptr %7, align 4
  %30 = load ptr, ptr %12, align 8
  %31 = icmp ne ptr %30, null
  br i1 %31, label %32, label %36

32:                                               ; preds = %5
  %33 = load i32, ptr %11, align 4
  %34 = load ptr, ptr %12, align 8
  %35 = getelementptr inbounds nuw %struct._h225_packet_info, ptr %34, i32 0, i32 3
  store i32 %33, ptr %35, align 4
  br label %36

36:                                               ; preds = %32, %5
  %37 = load i32, ptr %7, align 4
  call void @llvm.lifetime.end.p0(i64 8, ptr %12) #11
  call void @llvm.lifetime.end.p0(i64 4, ptr %11) #11
  ret i32 %37
}